target datalayout = "e-m:e-p270:32:32-p271:32:32-p272:64:64-i64:64-i128:128-f80:128-n8:16:32:64-S128"
target triple = "x86_64-pc-linux-gnu"

%"class.icu_77::UnicodeString" = type { %"class.icu_77::Replaceable", %"union.icu_77::UnicodeString::StackBufferOrFields" }
%"class.icu_77::Replaceable" = type { %"class.icu_77::UObject" }
%"class.icu_77::UObject" = type { ptr }
%"union.icu_77::UnicodeString::StackBufferOrFields" = type { %struct.anon.0, [32 x i8] }
%struct.anon.0 = type { i16, i32, i32, ptr }
%struct.anon = type { i16, [27 x i16] }
%"class.icu_77::TimeZoneFormat" = type { %"class.icu_77::Format", %"class.icu_77::Locale", [4 x i8], ptr, ptr, %"class.icu_77::UnicodeString", [6 x %"class.icu_77::UnicodeString"], [10 x i32], %"class.icu_77::UnicodeString", i32, %"class.icu_77::UnicodeString", %"class.icu_77::UnicodeString", [6 x ptr], i8, ptr }
%"class.icu_77::Format" = type { %"class.icu_77::UObject", ptr, ptr }
%"class.icu_77::Locale" = type <{ %"class.icu_77::UObject", [12 x i8], [6 x i8], [4 x i8], [2 x i8], i32, [4 x i8], ptr, [157 x i8], [3 x i8], ptr, i8, [7 x i8] }>

; Function Attrs: inlinehint mustprogress nounwind uwtable
define linkonce_odr noundef ptr @_ZNK6icu_7713UnicodeString13getArrayStartEv(ptr noundef nonnull align 8 dereferenceable(64) %0) #2 comdat align 2 {
  %2 = alloca ptr, align 8
  store ptr %0, ptr %2, align 8, !tbaa !33
  %3 = load ptr, ptr %2, align 8
  %4 = getelementptr inbounds nuw %"class.icu_77::UnicodeString", ptr %3, i32 0, i32 1
  %5 = getelementptr inbounds nuw %struct.anon.0, ptr %4, i32 0, i32 0
  %6 = load i16, ptr %5, align 8, !tbaa !37
  %7 = sext i16 %6 to i32
  %8 = and i32 %7, 2
  %9 = icmp ne i32 %8, 0
  br i1 %9, label %10, label %14

10:                                               ; preds = %1
  %11 = getelementptr inbounds nuw %"class.icu_77::UnicodeString", ptr %3, i32 0, i32 1
  %12 = getelementptr inbounds nuw %struct.anon, ptr %11, i32 0, i32 1
  %13 = getelementptr inbounds [27 x i16], ptr %12, i64 0, i64 0
  br label %18

14:                                               ; preds = %1
  %15 = getelementptr inbounds nuw %"class.icu_77::UnicodeString", ptr %3, i32 0, i32 1
  %16 = getelementptr inbounds nuw %struct.anon.0, ptr %15, i32 0, i32 3
  %17 = load ptr, ptr %16, align 8, !tbaa !37
  br label %18

18:                                               ; preds = %14, %10
  %19 = phi ptr [ %13, %10 ], [ %17, %14 ]
  ret ptr %19
}

; Function Attrs: inlinehint mustprogress nounwind uwtable
define linkonce_odr noundef i32 @_ZNK6icu_7713UnicodeString14getShortLengthEv(ptr noundef nonnull align 8 dereferenceable(64) %0) #2 comdat align 2 {
  %2 = alloca ptr, align 8
  store ptr %0, ptr %2, align 8, !tbaa !33
  %3 = load ptr, ptr %2, align 8
  %4 = getelementptr inbounds nuw %"class.icu_77::UnicodeString", ptr %3, i32 0, i32 1
  %5 = getelementptr inbounds nuw %struct.anon.0, ptr %4, i32 0, i32 0
  %6 = load i16, ptr %5, align 8, !tbaa !37
  %7 = sext i16 %6 to i32
  %8 = ashr i32 %7, 5
  ret i32 %8
}

; Function Attrs: inlinehint mustprogress nounwind uwtable
define linkonce_odr noundef signext i8 @_ZNK6icu_7713UnicodeString14hasShortLengthEv(ptr noundef nonnull align 8 dereferenceable(64) %0) #2 comdat align 2 {
  %2 = alloca ptr, align 8
  store ptr %0, ptr %2, align 8, !tbaa !33
  %3 = load ptr, ptr %2, align 8
  %4 = getelementptr inbounds nuw %"class.icu_77::UnicodeString", ptr %3, i32 0, i32 1
  %5 = getelementptr inbounds nuw %struct.anon.0, ptr %4, i32 0, i32 0
  %6 = load i16, ptr %5, align 8, !tbaa !37
  %7 = sext i16 %6 to i32
  %8 = icmp sge i32 %7, 0
  %9 = zext i1 %8 to i8
  ret i8 %9
}

; Function Attrs: inlinehint mustprogress uwtable
define linkonce_odr noundef signext i8 @_ZNK6icu_7713UnicodeString8doEqualsERKS0_i(ptr noundef nonnull align 8 dereferenceable(64) %0, ptr noundef nonnull align 8 dereferenceable(64) %1, i32 noundef %2) #3 comdat align 2 {
  %4 = alloca ptr, align 8
  %5 = alloca ptr, align 8
  %6 = alloca i32, align 4
  store ptr %0, ptr %4, align 8, !tbaa !33
  store ptr %1, ptr %5, align 8, !tbaa !33
  store i32 %2, ptr %6, align 4, !tbaa !14
  %7 = load ptr, ptr %4, align 8
  %8 = load ptr, ptr %5, align 8, !tbaa !33
  %9 = call noundef ptr @_ZNK6icu_7713UnicodeString13getArrayStartEv(ptr noundef nonnull align 8 dereferenceable(64) %8)
  %10 = load i32, ptr %6, align 4, !tbaa !14
  %11 = call noundef signext i8 @_ZNK6icu_7713UnicodeString8doEqualsEPKDsi(ptr noundef nonnull align 8 dereferenceable(64) %7, ptr noundef %9, i32 noundef %10)
  ret i8 %11
}

; Function Attrs: inlinehint mustprogress uwtable
define linkonce_odr noundef i32 @_ZNK6icu_7713UnicodeString6lengthEv(ptr noundef nonnull align 8 dereferenceable(64) %0) #3 comdat align 2 {
  %2 = alloca ptr, align 8
  store ptr %0, ptr %2, align 8, !tbaa !33
  %3 = load ptr, ptr %2, align 8
  %4 = call noundef signext i8 @_ZNK6icu_7713UnicodeString14hasShortLengthEv(ptr noundef nonnull align 8 dereferenceable(64) %3)
  %5 = icmp ne i8 %4, 0
  br i1 %5, label %6, label %8

6:                                                ; preds = %1
  %7 = call noundef i32 @_ZNK6icu_7713UnicodeString14getShortLengthEv(ptr noundef nonnull align 8 dereferenceable(64) %3)
  br label %12

8:                                                ; preds = %1
  %9 = getelementptr inbounds nuw %"class.icu_77::UnicodeString", ptr %3, i32 0, i32 1
  %10 = getelementptr inbounds nuw %struct.anon.0, ptr %9, i32 0, i32 1
  %11 = load i32, ptr %10, align 4, !tbaa !37
  br label %12

12:                                               ; preds = %8, %6
  %13 = phi i32 [ %7, %6 ], [ %11, %8 ]
  ret i32 %13
}

; Function Attrs: inlinehint mustprogress nounwind uwtable
define linkonce_odr noundef signext i8 @_ZNK6icu_7713UnicodeString7isBogusEv(ptr noundef nonnull align 8 dereferenceable(64) %0) #2 comdat align 2 {
  %2 = alloca ptr, align 8
  store ptr %0, ptr %2, align 8, !tbaa !33
  %3 = load ptr, ptr %2, align 8
  %4 = getelementptr inbounds nuw %"class.icu_77::UnicodeString", ptr %3, i32 0, i32 1
  %5 = getelementptr inbounds nuw %struct.anon.0, ptr %4, i32 0, i32 0
  %6 = load i16, ptr %5, align 8, !tbaa !37
  %7 = sext i16 %6 to i32
  %8 = and i32 %7, 1
  %9 = trunc i32 %8 to i8
  ret i8 %9
}

; Function Attrs: inlinehint mustprogress uwtable
define linkonce_odr noundef zeroext i1 @_ZNK6icu_7713UnicodeStringeqERKS0_(ptr noundef nonnull align 8 dereferenceable(64) %0, ptr noundef nonnull align 8 dereferenceable(64) %1) #3 comdat align 2 {
  %3 = alloca i1, align 1
  %4 = alloca ptr, align 8
  %5 = alloca ptr, align 8
  %6 = alloca i32, align 4
  %7 = alloca i32, align 4
  store ptr %0, ptr %4, align 8, !tbaa !33
  store ptr %1, ptr %5, align 8, !tbaa !33
  %8 = load ptr, ptr %4, align 8
  %9 = call noundef signext i8 @_ZNK6icu_7713UnicodeString7isBogusEv(ptr noundef nonnull align 8 dereferenceable(64) %8)
  %10 = icmp ne i8 %9, 0
  br i1 %10, label %11, label %15

11:                                               ; preds = %2
  %12 = load ptr, ptr %5, align 8, !tbaa !33
  %13 = call noundef signext i8 @_ZNK6icu_7713UnicodeString7isBogusEv(ptr noundef nonnull align 8 dereferenceable(64) %12)
  %14 = icmp ne i8 %13, 0
  store i1 %14, ptr %3, align 1
  br label %33

15:                                               ; preds = %2
  call void @llvm.lifetime.start.p0(i64 4, ptr %6) #15
  %16 = call noundef i32 @_ZNK6icu_7713UnicodeString6lengthEv(ptr noundef nonnull align 8 dereferenceable(64) %8)
  store i32 %16, ptr %6, align 4, !tbaa !14
  call void @llvm.lifetime.start.p0(i64 4, ptr %7) #15
  %17 = load ptr, ptr %5, align 8, !tbaa !33
  %18 = call noundef i32 @_ZNK6icu_7713UnicodeString6lengthEv(ptr noundef nonnull align 8 dereferenceable(64) %17)
  store i32 %18, ptr %7, align 4, !tbaa !14
  %19 = load ptr, ptr %5, align 8, !tbaa !33
  %20 = call noundef signext i8 @_ZNK6icu_7713UnicodeString7isBogusEv(ptr noundef nonnull align 8 dereferenceable(64) %19)
  %21 = icmp ne i8 %20, 0
  br i1 %21, label %31, label %22

22:                                               ; preds = %15
  %23 = load i32, ptr %6, align 4, !tbaa !14
  %24 = load i32, ptr %7, align 4, !tbaa !14
  %25 = icmp eq i32 %23, %24
  br i1 %25, label %26, label %31

26:                                               ; preds = %22
  %27 = load ptr, ptr %5, align 8, !tbaa !33
  %28 = load i32, ptr %6, align 4, !tbaa !14
  %29 = call noundef signext i8 @_ZNK6icu_7713UnicodeString8doEqualsERKS0_i(ptr noundef nonnull align 8 dereferenceable(64) %8, ptr noundef nonnull align 8 dereferenceable(64) %27, i32 noundef %28)
  %30 = icmp ne i8 %29, 0
  br label %31

31:                                               ; preds = %26, %22, %15
  %32 = phi i1 [ false, %22 ], [ false, %15 ], [ %30, %26 ]
  store i1 %32, ptr %3, align 1
  call void @llvm.lifetime.end.p0(i64 4, ptr %7) #15
  call void @llvm.lifetime.end.p0(i64 4, ptr %6) #15
  br label %33

33:                                               ; preds = %31, %11
  %34 = load i1, ptr %3, align 1
  ret i1 %34
}

; Function Attrs: mustprogress uwtable
define noundef zeroext i1 @_ZNK6icu_7714TimeZoneFormateqERKNS_6FormatE(ptr noundef nonnull align 8 dereferenceable(1024) %0, ptr noundef nonnull align 8 dereferenceable(24) %1) unnamed_addr #1 align 2 {
  %3 = alloca ptr, align 8
  %4 = alloca ptr, align 8
  %5 = alloca ptr, align 8
  %6 = alloca i8, align 1
  %7 = alloca i32, align 4
  %8 = alloca i32, align 4
  store ptr %0, ptr %3, align 8, !tbaa !39
  store ptr %1, ptr %4, align 8, !tbaa !78
  %9 = load ptr, ptr %3, align 8
  call void @llvm.lifetime.start.p0(i64 8, ptr %5) #15
  %10 = load ptr, ptr %4, align 8, !tbaa !78
  store ptr %10, ptr %5, align 8, !tbaa !39
  call void @llvm.lifetime.start.p0(i64 1, ptr %6) #15
  %11 = getelementptr inbounds nuw %"class.icu_77::TimeZoneFormat", ptr %9, i32 0, i32 1
  %12 = load ptr, ptr %5, align 8, !tbaa !39
  %13 = getelementptr inbounds nuw %"class.icu_77::TimeZoneFormat", ptr %12, i32 0, i32 1
  %14 = call noundef zeroext i1 @_ZNK6icu_776LocaleeqERKS0_(ptr noundef nonnull align 8 dereferenceable(217) %11, ptr noundef nonnull align 8 dereferenceable(217) %13)
  br i1 %14, label %15, label %35

15:                                               ; preds = %2
  %16 = getelementptr inbounds nuw %"class.icu_77::TimeZoneFormat", ptr %9, i32 0, i32 5
  %17 = load ptr, ptr %5, align 8, !tbaa !39
  %18 = getelementptr inbounds nuw %"class.icu_77::TimeZoneFormat", ptr %17, i32 0, i32 5
  %19 = call noundef zeroext i1 @_ZNK6icu_7713UnicodeStringeqERKS0_(ptr noundef nonnull align 8 dereferenceable(64) %16, ptr noundef nonnull align 8 dereferenceable(64) %18)
  br i1 %19, label %20, label %35

20:                                               ; preds = %15
  %21 = getelementptr inbounds nuw %"class.icu_77::TimeZoneFormat", ptr %9, i32 0, i32 8
  %22 = load ptr, ptr %5, align 8, !tbaa !39
  %23 = getelementptr inbounds nuw %"class.icu_77::TimeZoneFormat", ptr %22, i32 0, i32 8
  %24 = call noundef zeroext i1 @_ZNK6icu_7713UnicodeStringeqERKS0_(ptr noundef nonnull align 8 dereferenceable(64) %21, ptr noundef nonnull align 8 dereferenceable(64) %23)
  br i1 %24, label %25, label %35

25:                                               ; preds = %20
  %26 = getelementptr inbounds nuw %"class.icu_77::TimeZoneFormat", ptr %9, i32 0, i32 3
  %27 = load ptr, ptr %26, align 8, !tbaa !43
  %28 = load ptr, ptr %5, align 8, !tbaa !39
  %29 = getelementptr inbounds nuw %"class.icu_77::TimeZoneFormat", ptr %28, i32 0, i32 3
  %30 = load ptr, ptr %29, align 8, !tbaa !43
  %31 = load ptr, ptr %27, align 8, !tbaa !25
  %32 = getelementptr inbounds ptr, ptr %31, i64 3
  %33 = load ptr, ptr %32, align 8
  %34 = call noundef zeroext i1 %33(ptr noundef nonnull align 8 dereferenceable(8) %27, ptr noundef nonnull align 8 dereferenceable(8) %30)
  br label %35

35:                                               ; preds = %25, %20, %15, %2
  %36 = phi i1 [ false, %20 ], [ false, %15 ], [ false, %2 ], [ %34, %25 ]
  %37 = zext i1 %36 to i8
  store i8 %37, ptr %6, align 1, !tbaa !80
  call void @llvm.lifetime.start.p0(i64 4, ptr %7) #15
  store i32 0, ptr %7, align 4, !tbaa !14
  br label %38

38:                                               ; preds = %59, %35
  %39 = load i32, ptr %7, align 4, !tbaa !14
  %40 = icmp slt i32 %39, 6
  br i1 %40, label %41, label %44

41:                                               ; preds = %38
  %42 = load i8, ptr %6, align 1, !tbaa !80, !range !82, !noundef !83
  %43 = trunc i8 %42 to i1
  br label %44

44:                                               ; preds = %41, %38
  %45 = phi i1 [ false, %38 ], [ %43, %41 ]
  br i1 %45, label %47, label %46

46:                                               ; preds = %44
  call void @llvm.lifetime.end.p0(i64 4, ptr %7) #15
  br label %62

47:                                               ; preds = %44
  %48 = getelementptr inbounds nuw %"class.icu_77::TimeZoneFormat", ptr %9, i32 0, i32 6
  %49 = load i32, ptr %7, align 4, !tbaa !14
  %50 = sext i32 %49 to i64
  %51 = getelementptr inbounds [6 x %"class.icu_77::UnicodeString"], ptr %48, i64 0, i64 %50
  %52 = load ptr, ptr %5, align 8, !tbaa !39
  %53 = getelementptr inbounds nuw %"class.icu_77::TimeZoneFormat", ptr %52, i32 0, i32 6
  %54 = load i32, ptr %7, align 4, !tbaa !14
  %55 = sext i32 %54 to i64
  %56 = getelementptr inbounds [6 x %"class.icu_77::UnicodeString"], ptr %53, i64 0, i64 %55
  %57 = call noundef zeroext i1 @_ZNK6icu_7713UnicodeStringeqERKS0_(ptr noundef nonnull align 8 dereferenceable(64) %51, ptr noundef nonnull align 8 dereferenceable(64) %56)
  %58 = zext i1 %57 to i8
  store i8 %58, ptr %6, align 1, !tbaa !80
  br label %59

59:                                               ; preds = %47
  %60 = load i32, ptr %7, align 4, !tbaa !14
  %61 = add nsw i32 %60, 1
  store i32 %61, ptr %7, align 4, !tbaa !14
  br label %38, !llvm.loop !84

62:                                               ; preds = %46
  call void @llvm.lifetime.start.p0(i64 4, ptr %8) #15
  store i32 0, ptr %8, align 4, !tbaa !14
  br label %63

63:                                               ; preds = %86, %62
  %64 = load i32, ptr %8, align 4, !tbaa !14
  %65 = icmp slt i32 %64, 10
  br i1 %65, label %66, label %69

66:                                               ; preds = %63
  %67 = load i8, ptr %6, align 1, !tbaa !80, !range !82, !noundef !83
  %68 = trunc i8 %67 to i1
  br label %69

69:                                               ; preds = %66, %63
  %70 = phi i1 [ false, %63 ], [ %68, %66 ]
  br i1 %70, label %72, label %71

71:                                               ; preds = %69
  call void @llvm.lifetime.end.p0(i64 4, ptr %8) #15
  br label %89

72:                                               ; preds = %69
  %73 = getelementptr inbounds nuw %"class.icu_77::TimeZoneFormat", ptr %9, i32 0, i32 7
  %74 = load i32, ptr %8, align 4, !tbaa !14
  %75 = sext i32 %74 to i64
  %76 = getelementptr inbounds [10 x i32], ptr %73, i64 0, i64 %75
  %77 = load i32, ptr %76, align 4, !tbaa !14
  %78 = load ptr, ptr %5, align 8, !tbaa !39
  %79 = getelementptr inbounds nuw %"class.icu_77::TimeZoneFormat", ptr %78, i32 0, i32 7
  %80 = load i32, ptr %8, align 4, !tbaa !14
  %81 = sext i32 %80 to i64
  %82 = getelementptr inbounds [10 x i32], ptr %79, i64 0, i64 %81
  %83 = load i32, ptr %82, align 4, !tbaa !14
  %84 = icmp eq i32 %77, %83
  %85 = zext i1 %84 to i8
  store i8 %85, ptr %6, align 1, !tbaa !80
  br label %86

86:                                               ; preds = %72
  %87 = load i32, ptr %8, align 4, !tbaa !14
  %88 = add nsw i32 %87, 1
  store i32 %88, ptr %8, align 4, !tbaa !14
  br label %63, !llvm.loop !85

89:                                               ; preds = %71
  %90 = load i8, ptr %6, align 1, !tbaa !80, !range !82, !noundef !83
  %91 = trunc i8 %90 to i1
  call void @llvm.lifetime.end.p0(i64 1, ptr %6) #15
  call void @llvm.lifetime.end.p0(i64 8, ptr %5) #15
  ret i1 %91
}