; Function Attrs: mustprogress uwtable
define noundef zeroext i1 @_ZNK6icu_7714TimeZoneFormateqERKNS_6FormatE(ptr noundef nonnull align 8 dereferenceable(1024) %0, ptr noundef nonnull align 8 dereferenceable(24) %1) unnamed_addr #1 align 2 {
  %3 = getelementptr inbounds nuw i8, ptr %0, i64 24
  %4 = getelementptr inbounds nuw i8, ptr %1, i64 24
  %5 = tail call noundef zeroext i1 @_ZNK6icu_776LocaleeqERKS0_(ptr noundef nonnull align 8 dereferenceable(217) %3, ptr noundef nonnull align 8 dereferenceable(217) %4)
  br i1 %5, label %6, label %._crit_edge

6:                                                ; preds = %2
  %7 = getelementptr inbounds nuw i8, ptr %0, i64 272
  %8 = getelementptr inbounds nuw i8, ptr %0, i64 280
  %9 = load i16, ptr %8, align 8, !tbaa !23
  %10 = and i16 %9, 1
  %.not.i = icmp eq i16 %10, 0
  br i1 %.not.i, label %15, label %11

11:                                               ; preds = %6
  %12 = getelementptr inbounds nuw i8, ptr %1, i64 280
  %13 = load i16, ptr %12, align 8, !tbaa !23
  %14 = and i16 %13, 1
  %.not = icmp eq i16 %14, 0
  br i1 %.not, label %._crit_edge, label %38

15:                                               ; preds = %6
  %16 = icmp slt i16 %9, 0
  %17 = ashr i16 %9, 5
  %18 = sext i16 %17 to i32
  %19 = getelementptr inbounds nuw i8, ptr %0, i64 284
  %20 = load i32, ptr %19, align 4
  %21 = select i1 %16, i32 %20, i32 %18
  %22 = getelementptr inbounds nuw i8, ptr %1, i64 280
  %23 = load i16, ptr %22, align 8, !tbaa !23
  %24 = icmp slt i16 %23, 0
  %25 = ashr i16 %23, 5
  %26 = sext i16 %25 to i32
  %27 = getelementptr inbounds nuw i8, ptr %1, i64 284
  %28 = load i32, ptr %27, align 4
  %29 = select i1 %24, i32 %28, i32 %26
  %30 = and i16 %23, 1
  %.not9.i = icmp eq i16 %30, 0
  %31 = icmp eq i32 %21, %29
  %or.cond.i = and i1 %.not9.i, %31
  br i1 %or.cond.i, label %_ZNK6icu_7713UnicodeStringeqERKS0_.exit, label %._crit_edge

_ZNK6icu_7713UnicodeStringeqERKS0_.exit:          ; preds = %15
  %32 = and i16 %23, 2
  %.not.i.i.i = icmp eq i16 %32, 0
  %33 = getelementptr inbounds nuw i8, ptr %1, i64 282
  %34 = getelementptr inbounds nuw i8, ptr %1, i64 296
  %35 = load ptr, ptr %34, align 8
  %36 = select i1 %.not.i.i.i, ptr %35, ptr %33
  %37 = tail call noundef signext i8 @_ZNK6icu_7713UnicodeString8doEqualsEPKDsi(ptr noundef nonnull align 8 dereferenceable(64) %7, ptr noundef %36, i32 noundef %21)
  %.not34 = icmp eq i8 %37, 0
  br i1 %.not34, label %._crit_edge, label %38

38:                                               ; preds = %11, %_ZNK6icu_7713UnicodeStringeqERKS0_.exit
  %39 = getelementptr inbounds nuw i8, ptr %0, i64 760
  %40 = getelementptr inbounds nuw i8, ptr %0, i64 768
  %41 = load i16, ptr %40, align 8, !tbaa !23
  %42 = and i16 %41, 1
  %.not.i20 = icmp eq i16 %42, 0
  br i1 %.not.i20, label %47, label %43

43:                                               ; preds = %38
  %44 = getelementptr inbounds nuw i8, ptr %1, i64 768
  %45 = load i16, ptr %44, align 8, !tbaa !23
  %46 = and i16 %45, 1
  %.not35 = icmp eq i16 %46, 0
  br i1 %.not35, label %._crit_edge, label %_ZNK6icu_7713UnicodeStringeqERKS0_.exit.thread

47:                                               ; preds = %38
  %48 = icmp slt i16 %41, 0
  %49 = ashr i16 %41, 5
  %50 = sext i16 %49 to i32
  %51 = getelementptr inbounds nuw i8, ptr %0, i64 772
  %52 = load i32, ptr %51, align 4
  %53 = select i1 %48, i32 %52, i32 %50
  %54 = getelementptr inbounds nuw i8, ptr %1, i64 768
  %55 = load i16, ptr %54, align 8, !tbaa !23
  %56 = icmp slt i16 %55, 0
  %57 = ashr i16 %55, 5
  %58 = sext i16 %57 to i32
  %59 = getelementptr inbounds nuw i8, ptr %1, i64 772
  %60 = load i32, ptr %59, align 4
  %61 = select i1 %56, i32 %60, i32 %58
  %62 = and i16 %55, 1
  %.not9.i22 = icmp eq i16 %62, 0
  %63 = icmp eq i32 %53, %61
  %or.cond.i23 = and i1 %.not9.i22, %63
  br i1 %or.cond.i23, label %_ZNK6icu_7713UnicodeStringeqERKS0_.exit25, label %._crit_edge

_ZNK6icu_7713UnicodeStringeqERKS0_.exit25:        ; preds = %47
  %64 = and i16 %55, 2
  %.not.i.i.i24 = icmp eq i16 %64, 0
  %65 = getelementptr inbounds nuw i8, ptr %1, i64 770
  %66 = getelementptr inbounds nuw i8, ptr %1, i64 784
  %67 = load ptr, ptr %66, align 8
  %68 = select i1 %.not.i.i.i24, ptr %67, ptr %65
  %69 = tail call noundef signext i8 @_ZNK6icu_7713UnicodeString8doEqualsEPKDsi(ptr noundef nonnull align 8 dereferenceable(64) %39, ptr noundef %68, i32 noundef %53)
  %.not36 = icmp eq i8 %69, 0
  br i1 %.not36, label %._crit_edge, label %_ZNK6icu_7713UnicodeStringeqERKS0_.exit.thread

_ZNK6icu_7713UnicodeStringeqERKS0_.exit.thread:   ; preds = %_ZNK6icu_7713UnicodeStringeqERKS0_.exit25, %43
  %70 = getelementptr inbounds nuw i8, ptr %0, i64 256
  %71 = load ptr, ptr %70, align 8, !tbaa !41
  %72 = getelementptr inbounds nuw i8, ptr %1, i64 256
  %73 = load ptr, ptr %72, align 8, !tbaa !41
  %74 = load ptr, ptr %71, align 8, !tbaa !15
  %75 = getelementptr inbounds nuw i8, ptr %74, i64 24
  %76 = load ptr, ptr %75, align 8
  %77 = tail call noundef zeroext i1 %76(ptr noundef nonnull align 8 dereferenceable(8) %71, ptr noundef nonnull align 8 dereferenceable(8) %73)
  br i1 %77, label %.lr.ph, label %._crit_edge

.lr.ph:                                           ; preds = %_ZNK6icu_7713UnicodeStringeqERKS0_.exit.thread
  %78 = getelementptr inbounds nuw i8, ptr %0, i64 336
  %79 = getelementptr inbounds nuw i8, ptr %1, i64 336
  br label %82

.preheader:                                       ; preds = %_ZNK6icu_7713UnicodeStringeqERKS0_.exit31
  br i1 %.0.i27, label %.lr.ph39, label %._crit_edge

.lr.ph39:                                         ; preds = %.preheader
  %80 = getelementptr inbounds nuw i8, ptr %0, i64 720
  %81 = getelementptr inbounds nuw i8, ptr %1, i64 720
  br label %120

82:                                               ; preds = %.lr.ph, %_ZNK6icu_7713UnicodeStringeqERKS0_.exit31
  %indvars.iv = phi i64 [ 0, %.lr.ph ], [ %indvars.iv.next, %_ZNK6icu_7713UnicodeStringeqERKS0_.exit31 ]
  %83 = getelementptr inbounds nuw [6 x %"class.icu_77::UnicodeString"], ptr %78, i64 0, i64 %indvars.iv
  %84 = getelementptr inbounds nuw [6 x %"class.icu_77::UnicodeString"], ptr %79, i64 0, i64 %indvars.iv
  %85 = getelementptr inbounds nuw i8, ptr %83, i64 8
  %86 = load i16, ptr %85, align 8, !tbaa !23
  %87 = and i16 %86, 1
  %.not.i26 = icmp eq i16 %87, 0
  br i1 %.not.i26, label %93, label %88

88:                                               ; preds = %82
  %89 = getelementptr inbounds nuw i8, ptr %84, i64 8
  %90 = load i16, ptr %89, align 8, !tbaa !23
  %91 = and i16 %90, 1
  %92 = icmp ne i16 %91, 0
  br label %_ZNK6icu_7713UnicodeStringeqERKS0_.exit31

93:                                               ; preds = %82
  %94 = icmp slt i16 %86, 0
  %95 = ashr i16 %86, 5
  %96 = sext i16 %95 to i32
  %97 = getelementptr inbounds nuw i8, ptr %83, i64 12
  %98 = load i32, ptr %97, align 4
  %99 = select i1 %94, i32 %98, i32 %96
  %100 = getelementptr inbounds nuw i8, ptr %84, i64 8
  %101 = load i16, ptr %100, align 8, !tbaa !23
  %102 = icmp slt i16 %101, 0
  %103 = ashr i16 %101, 5
  %104 = sext i16 %103 to i32
  %105 = getelementptr inbounds nuw i8, ptr %84, i64 12
  %106 = load i32, ptr %105, align 4
  %107 = select i1 %102, i32 %106, i32 %104
  %108 = and i16 %101, 1
  %.not9.i28 = icmp eq i16 %108, 0
  %109 = icmp eq i32 %99, %107
  %or.cond.i29 = and i1 %.not9.i28, %109
  br i1 %or.cond.i29, label %110, label %._crit_edge

110:                                              ; preds = %93
  %111 = and i16 %101, 2
  %.not.i.i.i30 = icmp eq i16 %111, 0
  %112 = getelementptr inbounds nuw i8, ptr %84, i64 10
  %113 = getelementptr inbounds nuw i8, ptr %84, i64 24
  %114 = load ptr, ptr %113, align 8
  %115 = select i1 %.not.i.i.i30, ptr %114, ptr %112
  %116 = tail call noundef signext i8 @_ZNK6icu_7713UnicodeString8doEqualsEPKDsi(ptr noundef nonnull align 8 dereferenceable(64) %83, ptr noundef %115, i32 noundef %99)
  %117 = icmp ne i8 %116, 0
  br label %_ZNK6icu_7713UnicodeStringeqERKS0_.exit31

_ZNK6icu_7713UnicodeStringeqERKS0_.exit31:        ; preds = %88, %110
  %.0.i27 = phi i1 [ %92, %88 ], [ %117, %110 ]
  %indvars.iv.next = add nuw nsw i64 %indvars.iv, 1
  %118 = icmp samesign ult i64 %indvars.iv, 5
  %119 = and i1 %.0.i27, %118
  br i1 %119, label %82, label %.preheader, !llvm.loop !57

._crit_edge:                                      ; preds = %93, %120, %47, %15, %43, %11, %2, %_ZNK6icu_7713UnicodeStringeqERKS0_.exit, %_ZNK6icu_7713UnicodeStringeqERKS0_.exit25, %_ZNK6icu_7713UnicodeStringeqERKS0_.exit.thread, %.preheader
  %.1.lcssa = phi i1 [ false, %.preheader ], [ false, %_ZNK6icu_7713UnicodeStringeqERKS0_.exit.thread ], [ false, %_ZNK6icu_7713UnicodeStringeqERKS0_.exit25 ], [ false, %_ZNK6icu_7713UnicodeStringeqERKS0_.exit ], [ false, %2 ], [ false, %11 ], [ false, %43 ], [ false, %15 ], [ false, %47 ], [ %125, %120 ], [ false, %93 ]
  ret i1 %.1.lcssa

120:                                              ; preds = %.lr.ph39, %120
  %indvars.iv42 = phi i64 [ 0, %.lr.ph39 ], [ %indvars.iv.next43, %120 ]
  %121 = getelementptr inbounds nuw [10 x i32], ptr %80, i64 0, i64 %indvars.iv42
  %122 = load i32, ptr %121, align 4, !tbaa !12
  %123 = getelementptr inbounds nuw [10 x i32], ptr %81, i64 0, i64 %indvars.iv42
  %124 = load i32, ptr %123, align 4, !tbaa !12
  %125 = icmp eq i32 %122, %124
  %indvars.iv.next43 = add nuw nsw i64 %indvars.iv42, 1
  %126 = icmp samesign ult i64 %indvars.iv42, 9
  %127 = select i1 %126, i1 %125, i1 false
  br i1 %127, label %120, label %._crit_edge, !llvm.loop !58
}